target datalayout = "e-m:e-p270:32:32-p271:32:32-p272:64:64-i64:64-i128:128-f80:128-n8:16:32:64-S128"
target triple = "x86_64-pc-linux-gnu"

%"class.gmx::HistogramSize" = type <{ i64, double, i8, [7 x i8], double, i8, [7 x i8], double, double, i8, [7 x i8] }>
%"struct.gmx::AwhBiasStateHistory" = type { i32, i32, i32, i8, i8, double, double, double, i64 }

; Function Attrs: mustprogress nounwind uwtable
define void @_ZN3gmx13HistogramSize18restoreFromHistoryERKNS_19AwhBiasStateHistoryE(ptr noundef nonnull align 8 dereferenceable(57) %0, ptr noundef nonnull align 8 dereferenceable(48) %1) #1 align 2 {
  %3 = alloca ptr, align 8
  %4 = alloca ptr, align 8
  store ptr %0, ptr %3, align 8, !tbaa !4
  store ptr %1, ptr %4, align 8, !tbaa !90
  %5 = load ptr, ptr %3, align 8
  %6 = load ptr, ptr %4, align 8, !tbaa !90
  %7 = getelementptr inbounds nuw %"struct.gmx::AwhBiasStateHistory", ptr %6, i32 0, i32 8
  %8 = load i64, ptr %7, align 8, !tbaa !92
  %9 = getelementptr inbounds nuw %"class.gmx::HistogramSize", ptr %5, i32 0, i32 0
  store i64 %8, ptr %9, align 8, !tbaa !13
  %10 = load ptr, ptr %4, align 8, !tbaa !90
  %11 = getelementptr inbounds nuw %"struct.gmx::AwhBiasStateHistory", ptr %10, i32 0, i32 5
  %12 = load double, ptr %11, align 8, !tbaa !94
  %13 = getelementptr inbounds nuw %"class.gmx::HistogramSize", ptr %5, i32 0, i32 1
  store double %12, ptr %13, align 8, !tbaa !17
  %14 = load ptr, ptr %4, align 8, !tbaa !90
  %15 = getelementptr inbounds nuw %"struct.gmx::AwhBiasStateHistory", ptr %14, i32 0, i32 3
  %16 = load i8, ptr %15, align 4, !tbaa !95, !range !36, !noundef !37
  %17 = trunc i8 %16 to i1
  %18 = getelementptr inbounds nuw %"class.gmx::HistogramSize", ptr %5, i32 0, i32 2
  %19 = zext i1 %17 to i8
  store i8 %19, ptr %18, align 8, !tbaa !18
  %20 = load ptr, ptr %4, align 8, !tbaa !90
  %21 = getelementptr inbounds nuw %"struct.gmx::AwhBiasStateHistory", ptr %20, i32 0, i32 4
  %22 = load i8, ptr %21, align 1, !tbaa !96, !range !36, !noundef !37
  %23 = trunc i8 %22 to i1
  %24 = getelementptr inbounds nuw %"class.gmx::HistogramSize", ptr %5, i32 0, i32 5
  %25 = zext i1 %23 to i8
  store i8 %25, ptr %24, align 8, !tbaa !20
  %26 = load ptr, ptr %4, align 8, !tbaa !90
  %27 = getelementptr inbounds nuw %"struct.gmx::AwhBiasStateHistory", ptr %26, i32 0, i32 6
  %28 = load double, ptr %27, align 8, !tbaa !97
  %29 = getelementptr inbounds nuw %"class.gmx::HistogramSize", ptr %5, i32 0, i32 7
  store double %28, ptr %29, align 8, !tbaa !21
  %30 = load ptr, ptr %4, align 8, !tbaa !90
  %31 = getelementptr inbounds nuw %"struct.gmx::AwhBiasStateHistory", ptr %30, i32 0, i32 7
  %32 = load double, ptr %31, align 8, !tbaa !98
  %33 = getelementptr inbounds nuw %"class.gmx::HistogramSize", ptr %5, i32 0, i32 8
  store double %32, ptr %33, align 8, !tbaa !22
  %34 = getelementptr inbounds nuw %"class.gmx::HistogramSize", ptr %5, i32 0, i32 9
  store i8 0, ptr %34, align 8, !tbaa !23
  ret void
}