; Function Attrs: mustprogress nofree norecurse nosync nounwind willreturn memory(argmem: readwrite) uwtable
define void @_ZN3gmx13HistogramSize18restoreFromHistoryERKNS_19AwhBiasStateHistoryE(ptr noundef nonnull writeonly align 8 captures(none) dereferenceable(57) initializes((0, 17), (32, 33), (40, 57)) %0, ptr noundef nonnull readonly align 8 captures(none) dereferenceable(48) %1) local_unnamed_addr #0 align 2 {
  %3 = getelementptr inbounds nuw i8, ptr %1, i64 40
  %4 = load i64, ptr %3, align 8, !tbaa !51
  store i64 %4, ptr %0, align 8, !tbaa !4
  %5 = getelementptr inbounds nuw i8, ptr %1, i64 16
  %6 = load double, ptr %5, align 8, !tbaa !53
  %7 = getelementptr inbounds nuw i8, ptr %0, i64 8
  store double %6, ptr %7, align 8, !tbaa !11
  %8 = getelementptr inbounds nuw i8, ptr %1, i64 12
  %9 = load i8, ptr %8, align 4, !tbaa !54, !range !27, !noundef !28
  %10 = getelementptr inbounds nuw i8, ptr %0, i64 16
  store i8 %9, ptr %10, align 8, !tbaa !23
  %11 = getelementptr inbounds nuw i8, ptr %1, i64 13
  %12 = load i8, ptr %11, align 1, !tbaa !55, !range !27, !noundef !28
  %13 = getelementptr inbounds nuw i8, ptr %0, i64 32
  store i8 %12, ptr %13, align 8, !tbaa !29
  %14 = getelementptr inbounds nuw i8, ptr %1, i64 24
  %15 = load double, ptr %14, align 8, !tbaa !56
  %16 = getelementptr inbounds nuw i8, ptr %0, i64 40
  store double %15, ptr %16, align 8, !tbaa !30
  %17 = getelementptr inbounds nuw i8, ptr %1, i64 32
  %18 = load double, ptr %17, align 8, !tbaa !57
  %19 = getelementptr inbounds nuw i8, ptr %0, i64 48
  store double %18, ptr %19, align 8, !tbaa !31
  %20 = getelementptr inbounds nuw i8, ptr %0, i64 56
  store i8 0, ptr %20, align 8, !tbaa !47
  ret void
}